(ipath_class
Observation
p0
(dp1
S't_start'
p2
F0.0
sS'T'
p3
(lp4
F2.8845
aF4.7795
aF82.6105
aF164.8045
aF179.4855
aF193.8375
aF222.2425
aF229.0725
aF229.6845
aF287.9865
aF315.0855
aF317.7205
aF319.1335
aF347.0975
aF359.8995
aF366.0535
aF453.3975
aF514.3975
aF518.3335
aF559.2865
aF593.5895
aF623.2665
aF634.6915
aF635.2565
aF636.1765
aF662.6145
aF665.1035
aF778.2215
aF780.2545
aF782.7895
aF790.2435
aF830.3695
aF836.2445
aF853.6135
aF858.4045
aF865.2635
aF956.9045
aF957.9935
aF965.1205
aF979.3455
aF1013.601
aF1063.099
aF1077.202
aF1086.283
aF1208.33
aF1216.921
aF1221.947
aF1222.496
aF1225.627
aF1227.024
aF1232.734
aF1245.879
aF1255.879
aF1272.633
aF1334.908
aF1335.726
aF1335.885
aF1336.381
aF1336.813
aF1344.354
aF1347.774
aF1348.03
aF1380.865
aF1381.066
aF1382.159
aF1405.307
aF1424.144
aF1437.592
aF1438.376
aF1438.889
aF1440.755
aF1456.908
aF1505.447
aF1517.466
aF1522.738
aF1537.339
aF1537.428
aF1538.224
aF1540.318
aF1540.642
aF1541.214
aF1541.658
aF1551.909
aF1567.399
aF1576.004
aF1576.979
aF1624.644
aF1626.66
aF1635.539
aF1643.784
aF1644.254
aF1670.22
aF1682.245
aF1691.543
aF1691.628
aF1707.897
aF1710.084
aF1739.097
aF1741.978
aF1742.539
aF1744.401
aF1746.262
aF1784.295
aF1786.501
aF1786.82
aF1839.968
aF1846.918
aF1871.178
aF1874.529
aF1908.934
aF1947.564
aF1960.906
aF1974.308
aF1984.197
aF1984.733
aF1985.267
aF2027.037
aF2035.342
aF2099.079
aF2102.177
aF2111.963
aF2125.544
aF2165.441
aF2177.119
aF2208.086
aF2224.842
aF2231.931
aF2249.949
aF2262.403
asS'O'
p5
(lp6
I1
aI1
aI1
aI1
aI1
aI1
aI1
aI1
aI1
aI1
aI1
aI1
aI1
aI1
aI1
aI1
aI1
aI1
aI1
aI1
aI1
aI1
aI1
aI1
aI1
aI1
aI1
aI1
aI1
aI1
aI1
aI1
aI1
aI1
aI1
aI1
aI1
aI1
aI1
aI1
aI1
aI1
aI1
aI1
aI1
aI1
aI1
aI1
aI1
aI1
aI1
aI1
aI1
aI1
aI1
aI1
aI1
aI1
aI1
aI1
aI1
aI1
aI1
aI1
aI1
aI1
aI1
aI1
aI1
aI1
aI1
aI1
aI1
aI1
aI1
aI1
aI1
aI1
aI1
aI1
aI1
aI1
aI1
aI1
aI1
aI1
aI1
aI1
aI1
aI1
aI1
aI1
aI1
aI1
aI1
aI1
aI1
aI1
aI1
aI1
aI1
aI1
aI1
aI1
aI1
aI1
aI1
aI1
aI1
aI1
aI1
aI1
aI1
aI1
aI1
aI1
aI1
aI1
aI1
aI1
aI1
aI1
aI1
aI1
aI1
aI1
aI1
aI1
aI1
asS't_end'
p7
F2319.838
sb.